target datalayout = "e-m:e-p270:32:32-p271:32:32-p272:64:64-i64:64-i128:128-f80:128-n8:16:32:64-S128"
target triple = "x86_64-pc-linux-gnu"

%struct.PyVarObject = type { %struct._object, i64 }
%struct._object = type { %union.anon, ptr }
%union.anon = type { i64 }
%struct.anon = type { i32, i32 }
%struct.PyDictObject = type { %struct._object, i64, i64, ptr, ptr }
%struct.PyTupleObject = type { %struct.PyVarObject, [1 x ptr] }

; Function Attrs: alwaysinline nounwind uwtable
define internal i32 @_Py_IsImmortal(ptr noundef %0) #3 {
  %2 = alloca ptr, align 8
  store ptr %0, ptr %2, align 8, !tbaa !9
  %3 = load ptr, ptr %2, align 8, !tbaa !9
  %4 = getelementptr inbounds nuw %struct._object, ptr %3, i32 0, i32 0
  %5 = getelementptr inbounds nuw %struct.anon, ptr %4, i32 0, i32 0
  %6 = load i32, ptr %5, align 8, !tbaa !24
  %7 = icmp slt i32 %6, 0
  %8 = zext i1 %7 to i32
  ret i32 %8
}

; Function Attrs: nounwind uwtable
define hidden void @_PyStack_UnpackDict_FreeNoDecRef(ptr noundef %0, ptr noundef %1) #0 {
  %3 = alloca ptr, align 8
  %4 = alloca ptr, align 8
  store ptr %0, ptr %3, align 8, !tbaa !36
  store ptr %1, ptr %4, align 8, !tbaa !9
  %5 = load ptr, ptr %3, align 8, !tbaa !36
  %6 = getelementptr ptr, ptr %5, i64 -1
  call void @PyMem_Free(ptr noundef %6)
  %7 = load ptr, ptr %4, align 8, !tbaa !9
  call void @Py_DECREF(ptr noundef %7)
  ret void
}

; Function Attrs: alwaysinline nounwind uwtable
define internal void @Py_DECREF(ptr noundef %0) #3 {
  %2 = alloca ptr, align 8
  store ptr %0, ptr %2, align 8, !tbaa !9
  %3 = load ptr, ptr %2, align 8, !tbaa !9
  %4 = call i32 @_Py_IsImmortal(ptr noundef %3)
  %5 = icmp ne i32 %4, 0
  br i1 %5, label %6, label %7

6:                                                ; preds = %1
  br label %16

7:                                                ; preds = %1
  %8 = load ptr, ptr %2, align 8, !tbaa !9
  %9 = getelementptr inbounds nuw %struct._object, ptr %8, i32 0, i32 0
  %10 = getelementptr inbounds nuw %struct.anon, ptr %9, i32 0, i32 0
  %11 = load i32, ptr %10, align 8, !tbaa !24
  %12 = add i32 %11, -1
  store i32 %12, ptr %10, align 8, !tbaa !24
  %13 = icmp eq i32 %12, 0
  br i1 %13, label %14, label %16

14:                                               ; preds = %7
  %15 = load ptr, ptr %2, align 8, !tbaa !9
  call void @_Py_Dealloc(ptr noundef %15)
  br label %16

16:                                               ; preds = %6, %14, %7
  ret void
}

; Function Attrs: inlinehint nounwind uwtable
define internal i64 @Py_SIZE(ptr noundef %0) #1 {
  %2 = alloca ptr, align 8
  store ptr %0, ptr %2, align 8, !tbaa !9
  %3 = load ptr, ptr %2, align 8, !tbaa !9
  %4 = getelementptr inbounds nuw %struct.PyVarObject, ptr %3, i32 0, i32 1
  %5 = load i64, ptr %4, align 8, !tbaa !63
  ret i64 %5
}

; Function Attrs: nounwind uwtable
define hidden void @_PyStack_UnpackDict_Free(ptr noundef %0, i64 noundef %1, ptr noundef %2) #0 {
  %4 = alloca ptr, align 8
  %5 = alloca i64, align 8
  %6 = alloca ptr, align 8
  %7 = alloca i64, align 8
  %8 = alloca i64, align 8
  store ptr %0, ptr %4, align 8, !tbaa !36
  store i64 %1, ptr %5, align 8, !tbaa !37
  store ptr %2, ptr %6, align 8, !tbaa !9
  call void @llvm.lifetime.start.p0(i64 8, ptr %7) #9
  %9 = load ptr, ptr %6, align 8, !tbaa !9
  %10 = call i64 @PyTuple_GET_SIZE(ptr noundef %9)
  %11 = load i64, ptr %5, align 8, !tbaa !37
  %12 = add i64 %10, %11
  store i64 %12, ptr %7, align 8, !tbaa !37
  call void @llvm.lifetime.start.p0(i64 8, ptr %8) #9
  store i64 0, ptr %8, align 8, !tbaa !37
  br label %13

13:                                               ; preds = %23, %3
  %14 = load i64, ptr %8, align 8, !tbaa !37
  %15 = load i64, ptr %7, align 8, !tbaa !37
  %16 = icmp slt i64 %14, %15
  br i1 %16, label %18, label %17

17:                                               ; preds = %13
  call void @llvm.lifetime.end.p0(i64 8, ptr %8) #9
  br label %26

18:                                               ; preds = %13
  %19 = load ptr, ptr %4, align 8, !tbaa !36
  %20 = load i64, ptr %8, align 8, !tbaa !37
  %21 = getelementptr ptr, ptr %19, i64 %20
  %22 = load ptr, ptr %21, align 8, !tbaa !9
  call void @Py_DECREF(ptr noundef %22)
  br label %23

23:                                               ; preds = %18
  %24 = load i64, ptr %8, align 8, !tbaa !37
  %25 = add i64 %24, 1
  store i64 %25, ptr %8, align 8, !tbaa !37
  br label %13, !llvm.loop !48

26:                                               ; preds = %17
  %27 = load ptr, ptr %4, align 8, !tbaa !36
  %28 = load ptr, ptr %6, align 8, !tbaa !9
  call void @_PyStack_UnpackDict_FreeNoDecRef(ptr noundef %27, ptr noundef %28)
  call void @llvm.lifetime.end.p0(i64 8, ptr %7) #9
  ret void
}

; Function Attrs: inlinehint nounwind uwtable
define internal i64 @PyDict_GET_SIZE(ptr noundef %0) #1 {
  %2 = alloca ptr, align 8
  %3 = alloca ptr, align 8
  store ptr %0, ptr %2, align 8, !tbaa !9
  call void @llvm.lifetime.start.p0(i64 8, ptr %3) #9
  %4 = load ptr, ptr %2, align 8, !tbaa !9
  store ptr %4, ptr %3, align 8, !tbaa !38
  %5 = load ptr, ptr %3, align 8, !tbaa !38
  %6 = getelementptr inbounds nuw %struct.PyDictObject, ptr %5, i32 0, i32 1
  %7 = load i64, ptr %6, align 8, !tbaa !40
  call void @llvm.lifetime.end.p0(i64 8, ptr %3) #9
  ret i64 %7
}

; Function Attrs: inlinehint nounwind uwtable
define internal i64 @PyTuple_GET_SIZE(ptr noundef %0) #1 {
  %2 = alloca ptr, align 8
  %3 = alloca ptr, align 8
  store ptr %0, ptr %2, align 8, !tbaa !9
  call void @llvm.lifetime.start.p0(i64 8, ptr %3) #9
  %4 = load ptr, ptr %2, align 8, !tbaa !9
  store ptr %4, ptr %3, align 8, !tbaa !38
  %5 = load ptr, ptr %3, align 8, !tbaa !38
  %6 = call i64 @Py_SIZE(ptr noundef %5)
  call void @llvm.lifetime.end.p0(i64 8, ptr %3) #9
  ret i64 %6
}

; Function Attrs: nounwind uwtable
define internal ptr @_PyVectorcall_Call(ptr noundef %0, ptr noundef %1, ptr noundef %2, ptr noundef %3, ptr noundef %4) #0 {
  %6 = alloca ptr, align 8
  %7 = alloca ptr, align 8
  %8 = alloca ptr, align 8
  %9 = alloca ptr, align 8
  %10 = alloca ptr, align 8
  %11 = alloca ptr, align 8
  %12 = alloca i64, align 8
  %13 = alloca i32, align 4
  %14 = alloca ptr, align 8
  %15 = alloca ptr, align 8
  %16 = alloca ptr, align 8
  store ptr %0, ptr %7, align 8, !tbaa !4
  store ptr %1, ptr %8, align 8, !tbaa !38
  store ptr %2, ptr %9, align 8, !tbaa !9
  store ptr %3, ptr %10, align 8, !tbaa !9
  store ptr %4, ptr %11, align 8, !tbaa !9
  call void @llvm.lifetime.start.p0(i64 8, ptr %12) #9
  %17 = load ptr, ptr %10, align 8, !tbaa !9
  %18 = call i64 @PyTuple_GET_SIZE(ptr noundef %17)
  store i64 %18, ptr %12, align 8, !tbaa !37
  %19 = load ptr, ptr %11, align 8, !tbaa !9
  %20 = icmp eq ptr %19, null
  br i1 %20, label %25, label %21

21:                                               ; preds = %5
  %22 = load ptr, ptr %11, align 8, !tbaa !9
  %23 = call i64 @PyDict_GET_SIZE(ptr noundef %22)
  %24 = icmp eq i64 %23, 0
  br i1 %24, label %25, label %33

25:                                               ; preds = %21, %5
  %26 = load ptr, ptr %8, align 8, !tbaa !38
  %27 = load ptr, ptr %9, align 8, !tbaa !9
  %28 = load ptr, ptr %10, align 8, !tbaa !9
  %29 = getelementptr inbounds nuw %struct.PyTupleObject, ptr %28, i32 0, i32 1
  %30 = getelementptr inbounds [1 x ptr], ptr %29, i64 0, i64 0
  %31 = load i64, ptr %12, align 8, !tbaa !37
  %32 = call ptr %26(ptr noundef %27, ptr noundef %30, i64 noundef %31, ptr noundef null)
  store ptr %32, ptr %6, align 8
  store i32 1, ptr %13, align 4
  br label %60

33:                                               ; preds = %21
  call void @llvm.lifetime.start.p0(i64 8, ptr %14) #9
  call void @llvm.lifetime.start.p0(i64 8, ptr %15) #9
  %34 = load ptr, ptr %7, align 8, !tbaa !4
  %35 = load ptr, ptr %10, align 8, !tbaa !9
  %36 = getelementptr inbounds nuw %struct.PyTupleObject, ptr %35, i32 0, i32 1
  %37 = getelementptr inbounds [1 x ptr], ptr %36, i64 0, i64 0
  %38 = load i64, ptr %12, align 8, !tbaa !37
  %39 = load ptr, ptr %11, align 8, !tbaa !9
  %40 = call ptr @_PyStack_UnpackDict(ptr noundef %34, ptr noundef %37, i64 noundef %38, ptr noundef %39, ptr noundef %15)
  store ptr %40, ptr %14, align 8, !tbaa !36
  %41 = load ptr, ptr %14, align 8, !tbaa !36
  %42 = icmp eq ptr %41, null
  br i1 %42, label %43, label %44

43:                                               ; preds = %33
  store ptr null, ptr %6, align 8
  store i32 1, ptr %13, align 4
  br label %59

44:                                               ; preds = %33
  call void @llvm.lifetime.start.p0(i64 8, ptr %16) #9
  %45 = load ptr, ptr %8, align 8, !tbaa !38
  %46 = load ptr, ptr %9, align 8, !tbaa !9
  %47 = load ptr, ptr %14, align 8, !tbaa !36
  %48 = load i64, ptr %12, align 8, !tbaa !37
  %49 = or i64 %48, -9223372036854775808
  %50 = load ptr, ptr %15, align 8, !tbaa !9
  %51 = call ptr %45(ptr noundef %46, ptr noundef %47, i64 noundef %49, ptr noundef %50)
  store ptr %51, ptr %16, align 8, !tbaa !9
  %52 = load ptr, ptr %14, align 8, !tbaa !36
  %53 = load i64, ptr %12, align 8, !tbaa !37
  %54 = load ptr, ptr %15, align 8, !tbaa !9
  call void @_PyStack_UnpackDict_Free(ptr noundef %52, i64 noundef %53, ptr noundef %54)
  %55 = load ptr, ptr %7, align 8, !tbaa !4
  %56 = load ptr, ptr %9, align 8, !tbaa !9
  %57 = load ptr, ptr %16, align 8, !tbaa !9
  %58 = call ptr @_Py_CheckFunctionResult(ptr noundef %55, ptr noundef %56, ptr noundef %57, ptr noundef null)
  store ptr %58, ptr %6, align 8
  store i32 1, ptr %13, align 4
  call void @llvm.lifetime.end.p0(i64 8, ptr %16) #9
  br label %59

59:                                               ; preds = %44, %43
  call void @llvm.lifetime.end.p0(i64 8, ptr %15) #9
  call void @llvm.lifetime.end.p0(i64 8, ptr %14) #9
  br label %60

60:                                               ; preds = %59, %25
  call void @llvm.lifetime.end.p0(i64 8, ptr %12) #9
  %61 = load ptr, ptr %6, align 8
  ret ptr %61
}