; Function Attrs: nounwind uwtable
define internal fastcc ptr @_PyVectorcall_Call(ptr noundef %0, ptr noundef nonnull readonly captures(none) %1, ptr noundef %2, ptr noundef %3, ptr noundef %4) unnamed_addr #0 {
  %6 = alloca ptr, align 8
  %7 = getelementptr i8, ptr %3, i64 16
  %.val = load i64, ptr %7, align 8, !tbaa !40
  %8 = icmp eq ptr %4, null
  br i1 %8, label %12, label %9

9:                                                ; preds = %5
  %10 = getelementptr i8, ptr %4, i64 16
  %.val23 = load i64, ptr %10, align 8, !tbaa !36
  %11 = icmp eq i64 %.val23, 0
  br i1 %11, label %12, label %15

12:                                               ; preds = %9, %5
  %13 = getelementptr inbounds nuw i8, ptr %3, i64 24
  %14 = tail call ptr %1(ptr noundef %2, ptr noundef nonnull %13, i64 noundef %.val, ptr noundef null) #10
  br label %42

15:                                               ; preds = %9
  call void @llvm.lifetime.start.p0(i64 8, ptr nonnull %6) #10
  %16 = getelementptr inbounds nuw i8, ptr %3, i64 24
  %17 = call ptr @_PyStack_UnpackDict(ptr noundef %0, ptr noundef nonnull %16, i64 noundef %.val, ptr noundef nonnull %4, ptr noundef nonnull %6)
  %18 = icmp eq ptr %17, null
  br i1 %18, label %41, label %19

19:                                               ; preds = %15
  %20 = or i64 %.val, -9223372036854775808
  %21 = load ptr, ptr %6, align 8, !tbaa !23
  %22 = tail call ptr %1(ptr noundef %2, ptr noundef nonnull %17, i64 noundef %20, ptr noundef %21) #10
  %23 = getelementptr i8, ptr %21, i64 16
  %.val.i = load i64, ptr %23, align 8, !tbaa !40
  %24 = add i64 %.val.i, %.val
  %25 = icmp sgt i64 %24, 0
  br i1 %25, label %.lr.ph.i, label %._crit_edge.i

._crit_edge.i:                                    ; preds = %Py_DECREF.exit.i, %19
  %26 = getelementptr i8, ptr %17, i64 -8
  tail call void @PyMem_Free(ptr noundef %26) #10
  %27 = load i32, ptr %21, align 8, !tbaa !24
  %.not.i.i.i = icmp sgt i32 %27, -1
  br i1 %.not.i.i.i, label %28, label %_PyStack_UnpackDict_Free.exit

28:                                               ; preds = %._crit_edge.i
  %29 = add nsw i32 %27, -1
  store i32 %29, ptr %21, align 8, !tbaa !24
  %30 = icmp eq i32 %29, 0
  br i1 %30, label %31, label %_PyStack_UnpackDict_Free.exit

31:                                               ; preds = %28
  tail call void @_Py_Dealloc(ptr noundef nonnull %21) #10
  br label %_PyStack_UnpackDict_Free.exit

.lr.ph.i:                                         ; preds = %19, %Py_DECREF.exit.i
  %.08.i = phi i64 [ %39, %Py_DECREF.exit.i ], [ 0, %19 ]
  %32 = getelementptr ptr, ptr %17, i64 %.08.i
  %33 = load ptr, ptr %32, align 8, !tbaa !23
  %34 = load i32, ptr %33, align 8, !tbaa !24
  %.not.i.i = icmp sgt i32 %34, -1
  br i1 %.not.i.i, label %35, label %Py_DECREF.exit.i

35:                                               ; preds = %.lr.ph.i
  %36 = add nsw i32 %34, -1
  store i32 %36, ptr %33, align 8, !tbaa !24
  %37 = icmp eq i32 %36, 0
  br i1 %37, label %38, label %Py_DECREF.exit.i

38:                                               ; preds = %35
  tail call void @_Py_Dealloc(ptr noundef nonnull %33) #10
  br label %Py_DECREF.exit.i

Py_DECREF.exit.i:                                 ; preds = %38, %35, %.lr.ph.i
  %39 = add nuw nsw i64 %.08.i, 1
  %exitcond.not.i = icmp eq i64 %39, %24
  br i1 %exitcond.not.i, label %._crit_edge.i, label %.lr.ph.i, !llvm.loop !41

_PyStack_UnpackDict_Free.exit:                    ; preds = %._crit_edge.i, %28, %31
  %40 = tail call ptr @_Py_CheckFunctionResult(ptr noundef %0, ptr noundef %2, ptr noundef %22, ptr noundef null)
  br label %41

41:                                               ; preds = %15, %_PyStack_UnpackDict_Free.exit
  %.1 = phi ptr [ %40, %_PyStack_UnpackDict_Free.exit ], [ null, %15 ]
  call void @llvm.lifetime.end.p0(i64 8, ptr nonnull %6) #10
  br label %42

42:                                               ; preds = %41, %12
  %.0 = phi ptr [ %14, %12 ], [ %.1, %41 ]
  ret ptr %.0
}